; Function Attrs: mustprogress uwtable
define dso_local void @_ZN4pbrt14StatRegisterer13CallCallbacksERNS_16StatsAccumulatorE(ptr noundef nonnull align 8 dereferenceable(8) %0) local_unnamed_addr #5 align 2 {
  %2 = load ptr, ptr @_ZN4pbrtL9statFuncsE, align 8, !tbaa !35
  %3 = load ptr, ptr %2, align 8, !tbaa !37
  %4 = getelementptr inbounds nuw i8, ptr %2, i64 8
  %5 = load ptr, ptr %4, align 8, !tbaa !37
  %.not7 = icmp eq ptr %3, %5
  br i1 %.not7, label %._crit_edge, label %.lr.ph

._crit_edge:                                      ; preds = %.lr.ph, %1
  ret void

.lr.ph:                                           ; preds = %1, %.lr.ph
  %.sroa.04.08 = phi ptr [ %7, %.lr.ph ], [ %3, %1 ]
  %6 = load ptr, ptr %.sroa.04.08, align 8, !tbaa !39
  tail call void %6(ptr noundef nonnull align 8 dereferenceable(8) %0)
  %7 = getelementptr inbounds nuw i8, ptr %.sroa.04.08, i64 8
  %.not = icmp eq ptr %7, %5
  br i1 %.not, label %._crit_edge, label %.lr.ph
}